; Function Attrs: nounwind uwtable
define internal noundef ptr @lxb_html_tokenizer_state_script_data_end_tag_open(ptr nocapture noundef %0, ptr noundef %1, ptr noundef readnone %2) #1 {
  %4 = load i8, ptr %1, align 1
  %5 = zext i8 %4 to i64
  %6 = getelementptr inbounds [256 x i64], ptr @lexbor_str_res_alpha_character, i64 0, i64 %5
  %7 = load i64, ptr %6, align 8
  %.not = icmp eq i64 %7, 255
  %.phi.trans.insert = getelementptr inbounds i8, ptr %0, i64 136
  %.pre = load ptr, ptr %.phi.trans.insert, align 8
  br i1 %.not, label %._crit_edge, label %8

8:                                                ; preds = %3
  %9 = getelementptr inbounds i8, ptr %.pre, i64 -1
  %10 = getelementptr inbounds i8, ptr %0, i64 128
  %11 = load ptr, ptr %10, align 8
  %12 = ptrtoint ptr %9 to i64
  %13 = ptrtoint ptr %11 to i64
  %14 = sub i64 %12, %13
  %15 = getelementptr inbounds i8, ptr %0, i64 200
  store i64 %14, ptr %15, align 8
  %16 = getelementptr inbounds i8, ptr %0, i64 112
  store ptr %1, ptr %16, align 8
  br label %._crit_edge

._crit_edge:                                      ; preds = %3, %8
  %storemerge = phi ptr [ @lxb_html_tokenizer_state_script_data_end_tag_name, %8 ], [ @lxb_html_tokenizer_state_script_data, %3 ]
  store ptr %storemerge, ptr %0, align 8
  %17 = getelementptr inbounds i8, ptr %0, i64 136
  %18 = getelementptr inbounds i8, ptr %.pre, i64 1
  %19 = getelementptr inbounds i8, ptr %0, i64 144
  %20 = load ptr, ptr %19, align 8
  %21 = icmp ugt ptr %18, %20
  br i1 %21, label %22, label %36

22:                                               ; preds = %._crit_edge
  %23 = getelementptr inbounds i8, ptr %0, i64 128
  %24 = load ptr, ptr %23, align 8
  %25 = ptrtoint ptr %24 to i64
  %26 = ptrtoint ptr %20 to i64
  %27 = add i64 %26, 4097
  %28 = sub i64 %27, %25
  %29 = tail call ptr @lexbor_realloc(ptr noundef %24, i64 noundef %28) #6
  store ptr %29, ptr %23, align 8
  %30 = icmp eq ptr %29, null
  br i1 %30, label %lxb_html_tokenizer_temp_append.exit, label %lxb_html_tokenizer_temp_realloc.exit.thread.i

lxb_html_tokenizer_temp_realloc.exit.thread.i:    ; preds = %22
  %31 = ptrtoint ptr %.pre to i64
  %32 = sub i64 %31, %25
  %33 = getelementptr inbounds i8, ptr %29, i64 %32
  %34 = getelementptr inbounds i8, ptr %29, i64 %28
  store ptr %34, ptr %19, align 8
  br label %36

lxb_html_tokenizer_temp_append.exit:              ; preds = %22
  %35 = getelementptr inbounds i8, ptr %0, i64 232
  store i32 2, ptr %35, align 8
  br label %39

36:                                               ; preds = %._crit_edge, %lxb_html_tokenizer_temp_realloc.exit.thread.i
  %37 = phi ptr [ %33, %lxb_html_tokenizer_temp_realloc.exit.thread.i ], [ %.pre, %._crit_edge ]
  store i8 47, ptr %37, align 1
  %38 = getelementptr inbounds i8, ptr %37, i64 1
  store ptr %38, ptr %17, align 8
  br label %39

39:                                               ; preds = %lxb_html_tokenizer_temp_append.exit, %36
  %40 = phi ptr [ %1, %36 ], [ %2, %lxb_html_tokenizer_temp_append.exit ]
  ret ptr %40
}